Certificate:
    Data:
        Version: 3 (0x2)
        Serial Number: 1 (0x1)
    Signature Algorithm: sha256WithRSAEncryption
        Issuer: CN=mme-waw.openair4G.eur, C=FR, ST=PACA, L=Aix, O=Eurecom, OU=CM
        Validity
            Not Before: Mar 13 14:38:38 2018 GMT
            Not After : Mar 13 14:38:38 2019 GMT
        Subject: C=FR, ST=PACA, O=Eurecom, OU=CM, CN=mme-waw.openair4G.eur
        Subject Public Key Info:
            Public Key Algorithm: rsaEncryption
                Public-Key: (1024 bit)
                Modulus:
                    00:aa:87:2f:29:2c:ac:cb:c0:76:d8:45:bc:d7:e4:
                    59:06:af:02:8e:9b:92:f1:4e:70:fc:53:f1:52:9d:
                    a2:52:0e:39:6f:31:3a:40:8a:af:df:fd:8c:bd:f2:
                    d4:03:1f:d8:7f:a8:f5:ea:13:84:a2:c5:4e:5b:ba:
                    f7:9a:a6:19:04:4a:4d:a0:76:ca:0b:f9:ee:53:fd:
                    dd:48:30:10:a6:2b:d4:61:31:1c:df:0a:84:f3:7d:
                    51:19:d7:6f:2a:cf:6d:4f:2f:f4:3b:29:c9:91:84:
                    47:8e:c1:eb:57:d9:91:3a:48:d5:cb:bc:c9:37:16:
                    7c:1c:7a:b2:ed:ae:e2:c3:9f
                Exponent: 65537 (0x10001)
        X509v3 extensions:
            X509v3 Basic Constraints: 
                CA:FALSE
            Netscape Comment: 
                OpenSSL Generated Certificate
            X509v3 Subject Key Identifier: 
                2A:2F:A7:75:67:08:4A:1C:C4:C9:99:7F:0D:8B:78:14:0F:6D:3D:8A
            X509v3 Authority Key Identifier: 
                keyid:33:FC:FE:4D:F4:77:5B:F9:EC:61:C8:6A:B4:A1:20:E3:B0:21:2C:CB

    Signature Algorithm: sha256WithRSAEncryption
         0e:55:93:50:6a:84:32:1f:93:52:c5:5a:a1:b7:9d:d9:89:cc:
         2f:71:93:ff:84:5b:c3:7d:6b:5a:7f:a5:ae:0b:b3:86:03:da:
         47:d0:ca:c7:84:a3:ca:e3:66:62:f1:e2:d2:e4:62:8c:30:9f:
         2b:02:a6:a2:16:83:d5:b0:46:ab:61:68:3e:0d:58:65:39:ae:
         53:c8:15:03:31:99:0e:3b:7a:5e:2d:b5:75:e9:a0:fd:2b:4f:
         f2:37:75:a8:b5:dd:8f:8c:4a:c7:22:c0:b6:24:65:20:cf:1a:
         5d:de:ad:8e:b3:71:29:fa:41:19:95:00:c1:bd:27:82:b2:65:
         b0:db
-----BEGIN CERTIFICATE-----
MIICtTCCAh6gAwIBAgIBATANBgkqhkiG9w0BAQsFADBpMR4wHAYDVQQDDBVtbWUt
d2F3Lm9wZW5haXI0Ry5ldXIxCzAJBgNVBAYTAkZSMQ0wCwYDVQQIDARQQUNBMQww
CgYDVQQHDANBaXgxEDAOBgNVBAoMB0V1cmVjb20xCzAJBgNVBAsMAkNNMB4XDTE4
MDMxMzE0MzgzOFoXDTE5MDMxMzE0MzgzOFowWzELMAkGA1UEBhMCRlIxDTALBgNV
BAgMBFBBQ0ExEDAOBgNVBAoMB0V1cmVjb20xCzAJBgNVBAsMAkNNMR4wHAYDVQQD
DBVtbWUtd2F3Lm9wZW5haXI0Ry5ldXIwgZ8wDQYJKoZIhvcNAQEBBQADgY0AMIGJ
AoGBAKqHLyksrMvAdthFvNfkWQavAo6bkvFOcPxT8VKdolIOOW8xOkCKr9/9jL3y
1AMf2H+o9eoThKLFTlu695qmGQRKTaB2ygv57lP93UgwEKYr1GExHN8KhPN9URnX
byrPbU8v9DspyZGER47B61fZkTpI1cu8yTcWfBx6su2u4sOfAgMBAAGjezB5MAkG
A1UdEwQCMAAwLAYJYIZIAYb4QgENBB8WHU9wZW5TU0wgR2VuZXJhdGVkIENlcnRp
ZmljYXRlMB0GA1UdDgQWBBQqL6d1ZwhKHMTJmX8Ni3gUD209ijAfBgNVHSMEGDAW
gBQz/P5N9Hdb+exhyGq0oSDjsCEsyzANBgkqhkiG9w0BAQsFAAOBgQAOVZNQaoQy
H5NSxVqht53ZicwvcZP/hFvDfWtaf6WuC7OGA9pH0MrHhKPK42Zi8eLS5GKMMJ8r
AqaiFoPVsEarYWg+DVhlOa5TyBUDMZkOO3peLbV16aD9K0/yN3Wotd2PjErHIsC2
JGUgzxpd3q2Os3Ep+kEZlQDBvSeCsmWw2w==
-----END CERTIFICATE-----
