Certificate:
    Data:
        Version: 3 (0x2)
        Serial Number: 1 (0x1)
    Signature Algorithm: sha256WithRSAEncryption
        Issuer: CN=hss-waw.openair4G.eur, C=FR, ST=PACA, L=Aix, O=Eurecom, OU=CM
        Validity
            Not Before: Apr  4 12:45:31 2018 GMT
            Not After : Apr  4 12:45:31 2019 GMT
        Subject: C=FR, ST=PACA, O=Eurecom, OU=CM, CN=hss-waw.openair4G.eur
        Subject Public Key Info:
            Public Key Algorithm: rsaEncryption
                Public-Key: (1024 bit)
                Modulus:
                    00:c5:da:86:c3:f3:a1:60:15:a5:05:86:e9:f4:a8:
                    40:b3:8f:07:d5:fd:e1:78:41:ce:a8:58:2a:9e:98:
                    ae:21:91:8a:d8:df:fe:a9:83:80:6b:b5:e3:00:2e:
                    e2:1c:2a:5d:df:c3:69:74:2b:31:8c:40:23:79:a2:
                    73:93:39:af:b4:fd:00:b0:85:42:96:e2:8a:24:b2:
                    8f:6d:7f:72:d8:7a:3b:48:21:7c:00:ee:94:36:f6:
                    8e:1d:cf:63:f7:d6:09:48:f1:7e:2a:fd:c5:65:f6:
                    a6:9e:f0:74:45:8b:3c:6a:b9:71:f6:13:80:0f:2d:
                    31:22:b1:07:a8:45:ec:82:51
                Exponent: 65537 (0x10001)
        X509v3 extensions:
            X509v3 Basic Constraints: 
                CA:FALSE
            Netscape Comment: 
                OpenSSL Generated Certificate
            X509v3 Subject Key Identifier: 
                3C:5F:55:99:3F:EA:E1:DB:98:8B:8F:B1:2B:DC:76:C3:91:6F:F2:E4
            X509v3 Authority Key Identifier: 
                keyid:E3:50:84:D2:64:EF:47:B8:E0:8F:85:7B:FD:6E:AD:1F:82:50:12:3E

    Signature Algorithm: sha256WithRSAEncryption
         66:08:b8:cf:f9:08:d9:38:a1:f8:0f:8c:5a:6d:4a:f0:6c:6a:
         68:f6:35:26:94:d4:1b:88:01:77:7a:27:fc:94:6b:88:00:d2:
         6b:44:96:6c:ad:7d:12:30:6c:c8:77:f2:81:c6:83:53:4a:93:
         a2:2d:5a:bb:bb:d4:df:6c:a1:d9:09:95:08:21:ec:9d:56:41:
         8a:10:3c:c3:82:46:ff:c1:6c:bc:66:74:a4:45:a1:20:36:dc:
         59:0e:3b:73:57:c1:1c:1a:9f:06:39:ce:16:9c:57:0d:73:3a:
         bb:ec:7b:73:ab:eb:3a:e3:cd:83:3f:70:7e:1f:72:3b:61:b2:
         79:9f
-----BEGIN CERTIFICATE-----
MIICtTCCAh6gAwIBAgIBATANBgkqhkiG9w0BAQsFADBpMR4wHAYDVQQDDBVoc3Mt
d2F3Lm9wZW5haXI0Ry5ldXIxCzAJBgNVBAYTAkZSMQ0wCwYDVQQIDARQQUNBMQww
CgYDVQQHDANBaXgxEDAOBgNVBAoMB0V1cmVjb20xCzAJBgNVBAsMAkNNMB4XDTE4
MDQwNDEyNDUzMVoXDTE5MDQwNDEyNDUzMVowWzELMAkGA1UEBhMCRlIxDTALBgNV
BAgMBFBBQ0ExEDAOBgNVBAoMB0V1cmVjb20xCzAJBgNVBAsMAkNNMR4wHAYDVQQD
DBVoc3Mtd2F3Lm9wZW5haXI0Ry5ldXIwgZ8wDQYJKoZIhvcNAQEBBQADgY0AMIGJ
AoGBAMXahsPzoWAVpQWG6fSoQLOPB9X94XhBzqhYKp6YriGRitjf/qmDgGu14wAu
4hwqXd/DaXQrMYxAI3mic5M5r7T9ALCFQpbiiiSyj21/cth6O0ghfADulDb2jh3P
Y/fWCUjxfir9xWX2pp7wdEWLPGq5cfYTgA8tMSKxB6hF7IJRAgMBAAGjezB5MAkG
A1UdEwQCMAAwLAYJYIZIAYb4QgENBB8WHU9wZW5TU0wgR2VuZXJhdGVkIENlcnRp
ZmljYXRlMB0GA1UdDgQWBBQ8X1WZP+rh25iLj7Er3HbDkW/y5DAfBgNVHSMEGDAW
gBTjUITSZO9HuOCPhXv9bq0fglASPjANBgkqhkiG9w0BAQsFAAOBgQBmCLjP+QjZ
OKH4D4xabUrwbGpo9jUmlNQbiAF3eif8lGuIANJrRJZsrX0SMGzId/KBxoNTSpOi
LVq7u9TfbKHZCZUIIeydVkGKEDzDgkb/wWy8ZnSkRaEgNtxZDjtzV8EcGp8GOc4W
nFcNczq77Htzq+s6482DP3B+H3I7YbJ5nw==
-----END CERTIFICATE-----
